(lp0
F0.782330201821677
aF0.5880259686894959
aF0.1891909638392291
aF0.02556634646476069
aF-0.2710032725264633
aF-0.43974115919388385
aF-0.6493852002049215
aF-0.8845955876807198
aF-1.0584467436410925
aF-1.0584467436410925
aF-1.0584467436410925
aF-0.894822126266624
aF-0.35792885050664963
aF-0.07669903939428206
aF0.08692557798018634
aF0.2505501953546547
aF0.41417481272912315
aF0.5829126993965437
aF0.7465373167710121
aF1.0635600129340446
aF1.0584467436410925
aF0.894822126266624
aF0.7158577010132993
aF0.5368932757599745
aF0.16873788666742054
aF0.0
aF-0.19430423313218123
aF-0.4192880820220753
aF-0.5829126993965437
aF-0.7618771246498685
aF-0.9306150113172891
aF-1.073786551519949
aF-1.0686732822269966
aF-1.0686732822269966
aF-0.894822126266624
aF-0.6033657765683522
aF-0.32213596545598466
aF-0.14828480949561199
aF0.015339807878856412
aF0.1891909638392291
aF0.3528155812136975
aF0.521553467881118
aF0.7158577010132993
aF0.9561813577820497
aF1.073786551519949
aF1.0686732822269966
aF0.9715211656609062
aF0.782330201821677
aF0.5420065450529266
aF0.2710032725264633
a.